; Function Attrs: nounwind uwtable
define ptr @l___private_Std_Tactic_BVDecide_Bitblast_BVExpr_Circuit_Lemmas_Operations_Add_0__Std_Tactic_BVDecide_BVExpr_bitblast_FullAdderInput_cast_match__1_splitter___rarg(ptr noundef %0, ptr noundef %1) #0 {
  %3 = getelementptr inbounds nuw i8, ptr %0, i64 8
  %4 = load ptr, ptr %3, align 8, !tbaa !4
  %5 = ptrtoint ptr %4 to i64
  %6 = and i64 %5, 1
  %.not = icmp eq i64 %6, 0
  br i1 %.not, label %7, label %lean_inc.exit

7:                                                ; preds = %2
  %.val.i = load i32, ptr %4, align 4, !tbaa !8
  %8 = icmp sgt i32 %.val.i, 0
  br i1 %8, label %9, label %11, !prof !11

9:                                                ; preds = %7
  %10 = add nuw i32 %.val.i, 1
  store i32 %10, ptr %4, align 4, !tbaa !8
  br label %lean_inc.exit

11:                                               ; preds = %7
  %.not.i14 = icmp eq i32 %.val.i, 0
  br i1 %.not.i14, label %lean_inc.exit, label %12

12:                                               ; preds = %11
  tail call void @lean_inc_ref_cold(ptr noundef nonnull %4) #3
  br label %lean_inc.exit

lean_inc.exit:                                    ; preds = %12, %11, %9, %2
  %13 = getelementptr inbounds nuw i8, ptr %0, i64 16
  %14 = load ptr, ptr %13, align 8, !tbaa !4
  %15 = ptrtoint ptr %14 to i64
  %16 = and i64 %15, 1
  %.not21 = icmp eq i64 %16, 0
  br i1 %.not21, label %17, label %lean_inc.exit12

17:                                               ; preds = %lean_inc.exit
  %.val.i15 = load i32, ptr %14, align 4, !tbaa !8
  %18 = icmp sgt i32 %.val.i15, 0
  br i1 %18, label %19, label %21, !prof !11

19:                                               ; preds = %17
  %20 = add nuw i32 %.val.i15, 1
  store i32 %20, ptr %14, align 4, !tbaa !8
  br label %lean_inc.exit12

21:                                               ; preds = %17
  %.not.i16 = icmp eq i32 %.val.i15, 0
  br i1 %.not.i16, label %lean_inc.exit12, label %22

22:                                               ; preds = %21
  tail call void @lean_inc_ref_cold(ptr noundef nonnull %14) #3
  br label %lean_inc.exit12

lean_inc.exit12:                                  ; preds = %22, %21, %19, %lean_inc.exit
  %23 = getelementptr inbounds nuw i8, ptr %0, i64 24
  %24 = load ptr, ptr %23, align 8, !tbaa !4
  %25 = ptrtoint ptr %24 to i64
  %26 = and i64 %25, 1
  %.not22 = icmp eq i64 %26, 0
  br i1 %.not22, label %27, label %lean_inc.exit13

27:                                               ; preds = %lean_inc.exit12
  %.val.i18 = load i32, ptr %24, align 4, !tbaa !8
  %28 = icmp sgt i32 %.val.i18, 0
  br i1 %28, label %29, label %31, !prof !11

29:                                               ; preds = %27
  %30 = add nuw i32 %.val.i18, 1
  store i32 %30, ptr %24, align 4, !tbaa !8
  br label %lean_inc.exit13

31:                                               ; preds = %27
  %.not.i19 = icmp eq i32 %.val.i18, 0
  br i1 %.not.i19, label %lean_inc.exit13, label %32

32:                                               ; preds = %31
  tail call void @lean_inc_ref_cold(ptr noundef nonnull %24) #3
  br label %lean_inc.exit13

lean_inc.exit13:                                  ; preds = %32, %31, %29, %lean_inc.exit12
  %33 = ptrtoint ptr %0 to i64
  %34 = and i64 %33, 1
  %.not23 = icmp eq i64 %34, 0
  br i1 %.not23, label %35, label %lean_dec.exit

35:                                               ; preds = %lean_inc.exit13
  %36 = load i32, ptr %0, align 4, !tbaa !8
  %37 = icmp sgt i32 %36, 1
  br i1 %37, label %38, label %40, !prof !11

38:                                               ; preds = %35
  %39 = add nsw i32 %36, -1
  store i32 %39, ptr %0, align 4, !tbaa !8
  br label %lean_dec.exit

40:                                               ; preds = %35
  %.not.i = icmp eq i32 %36, 0
  br i1 %.not.i, label %lean_dec.exit, label %41

41:                                               ; preds = %40
  tail call void @lean_dec_ref_cold(ptr noundef nonnull %0) #3
  br label %lean_dec.exit

lean_dec.exit:                                    ; preds = %41, %40, %38, %lean_inc.exit13
  %42 = tail call ptr @lean_apply_3(ptr noundef %1, ptr noundef %4, ptr noundef %14, ptr noundef %24) #3
  ret ptr %42
}